; ModuleID = 'source-C-CXX/53/1410.cpp'
source_filename = "source-C-CXX/53/1410.cpp"
target datalayout = "e-m:e-p270:32:32-p271:32:32-p272:64:64-i64:64-f80:128-n8:16:32:64-S128"
target triple = "x86_64-pc-linux-gnu"

%"class.std::ios_base::Init" = type { i8 }
%"class.std::basic_istream" = type { i32 (...)**, i64, %"class.std::basic_ios" }
%"class.std::basic_ios" = type { %"class.std::ios_base", %"class.std::basic_ostream"*, i8, i8, %"class.std::basic_streambuf"*, %"class.std::ctype"*, %"class.std::num_put"*, %"class.std::num_get"* }
%"class.std::ios_base" = type { i32 (...)**, i64, i64, i32, i32, i32, %"struct.std::ios_base::_Callback_list"*, %"struct.std::ios_base::_Words", [8 x %"struct.std::ios_base::_Words"], i32, %"struct.std::ios_base::_Words"*, %"class.std::locale" }
%"struct.std::ios_base::_Callback_list" = type { %"struct.std::ios_base::_Callback_list"*, void (i32, %"class.std::ios_base"*, i32)*, i32, i32 }
%"struct.std::ios_base::_Words" = type { i8*, i64 }
%"class.std::locale" = type { %"class.std::locale::_Impl"* }
%"class.std::locale::_Impl" = type { i32, %"class.std::locale::facet"**, i64, %"class.std::locale::facet"**, i8** }
%"class.std::locale::facet" = type <{ i32 (...)**, i32, [4 x i8] }>
%"class.std::basic_ostream" = type { i32 (...)**, %"class.std::basic_ios" }
%"class.std::basic_streambuf" = type { i32 (...)**, i8*, i8*, i8*, i8*, i8*, i8*, %"class.std::locale" }
%"class.std::ctype" = type <{ %"class.std::locale::facet.base", [4 x i8], %struct.__locale_struct*, i8, [7 x i8], i32*, i32*, i16*, i8, [256 x i8], [256 x i8], i8, [6 x i8] }>
%"class.std::locale::facet.base" = type <{ i32 (...)**, i32 }>
%struct.__locale_struct = type { [13 x %struct.__locale_data*], i16*, i32*, i32*, [13 x i8*] }
%struct.__locale_data = type opaque
%"class.std::num_put" = type { %"class.std::locale::facet.base", [4 x i8] }
%"class.std::num_get" = type { %"class.std::locale::facet.base", [4 x i8] }

@_ZStL8__ioinit = internal global %"class.std::ios_base::Init" zeroinitializer, align 1
@__dso_handle = external hidden global i8
@_ZSt3cin = external global %"class.std::basic_istream", align 8
@_ZSt4cout = external global %"class.std::basic_ostream", align 8
@llvm.global_ctors = appending global [1 x { i32, void ()*, i8* }] [{ i32, void ()*, i8* } { i32 65535, void ()* @_GLOBAL__sub_I_1410.cpp, i8* null }]

declare void @_ZNSt8ios_base4InitC1Ev(%"class.std::ios_base::Init"* nonnull align 1 dereferenceable(1)) unnamed_addr #0

; Function Attrs: nounwind
declare void @_ZNSt8ios_base4InitD1Ev(%"class.std::ios_base::Init"* nonnull align 1 dereferenceable(1)) unnamed_addr #1

; Function Attrs: nofree nounwind
declare i32 @__cxa_atexit(void (i8*)*, i8*, i8*) local_unnamed_addr #2

; Function Attrs: mustprogress norecurse sspstrong uwtable
define dso_local i32 @main() local_unnamed_addr #3 {
  %1 = alloca i32, align 4
  %2 = alloca i32, align 4
  %3 = alloca [100 x i32], align 16
  %4 = bitcast i32* %1 to i8*
  call void @llvm.lifetime.start.p0i8(i64 4, i8* nonnull %4) #8
  %5 = bitcast i32* %2 to i8*
  call void @llvm.lifetime.start.p0i8(i64 4, i8* nonnull %5) #8
  %6 = bitcast [100 x i32]* %3 to i8*
  %7 = getelementptr inbounds [100 x i32], [100 x i32]* %3, i64 0, i64 1
  %8 = call nonnull align 8 dereferenceable(16) %"class.std::basic_istream"* @_ZNSirsERi(%"class.std::basic_istream"* nonnull align 8 dereferenceable(16) @_ZSt3cin, i32* nonnull align 4 dereferenceable(4) %1)
  %9 = call nonnull align 8 dereferenceable(16) %"class.std::basic_istream"* @_ZNSirsERi(%"class.std::basic_istream"* nonnull align 8 dereferenceable(16) %8, i32* nonnull align 4 dereferenceable(4) %2)
  %10 = bitcast %"class.std::basic_istream"* %9 to i8**
  %11 = load i8*, i8** %10, align 8, !tbaa !5
  %12 = getelementptr i8, i8* %11, i64 -24
  %13 = bitcast i8* %12 to i64*
  %14 = load i64, i64* %13, align 8
  %15 = bitcast %"class.std::basic_istream"* %9 to i8*
  %16 = add nsw i64 %14, 32
  %17 = getelementptr inbounds i8, i8* %15, i64 %16
  %18 = bitcast i8* %17 to i32*
  %19 = load i32, i32* %18, align 8, !tbaa !8
  %20 = and i32 %19, 5
  %21 = icmp eq i32 %20, 0
  br i1 %21, label %22, label %106

22:                                               ; preds = %0, %88
  call void @llvm.lifetime.start.p0i8(i64 400, i8* nonnull %6) #8
  call void @llvm.memset.p0i8.i64(i8* noundef nonnull align 16 dereferenceable(400) %6, i8 0, i64 400, i1 false)
  store i32 1, i32* %7, align 4, !tbaa !18
  %23 = load i32, i32* %1, align 4, !tbaa !18
  %24 = add nsw i32 %23, 1
  %25 = add nsw i32 %23, -1
  %26 = load i32, i32* %2, align 4
  %27 = icmp slt i32 %23, 1
  br i1 %27, label %58, label %28

28:                                               ; preds = %22
  %29 = zext i32 %24 to i64
  %30 = add nuw i32 %23, 2
  %31 = zext i32 %30 to i64
  br label %32

32:                                               ; preds = %47, %28
  %33 = phi i32 [ 1, %28 ], [ %48, %47 ]
  %34 = phi i64 [ 2, %28 ], [ %49, %47 ]
  %35 = phi i32 [ -1, %28 ], [ %50, %47 ]
  %36 = srem i32 %33, %25
  %37 = icmp eq i32 %36, 0
  br i1 %37, label %38, label %52

38:                                               ; preds = %32
  %39 = mul nsw i32 %33, %23
  %40 = sdiv i32 %39, %25
  %41 = add nsw i32 %26, %40
  %42 = getelementptr inbounds [100 x i32], [100 x i32]* %3, i64 0, i64 %34
  store i32 %41, i32* %42, align 4, !tbaa !18
  %43 = icmp eq i64 %34, %29
  %44 = select i1 %43, i32 1, i32 %35
  %45 = add nuw nsw i64 %34, 1
  %46 = icmp eq i64 %45, %31
  br i1 %46, label %51, label %47

47:                                               ; preds = %38, %55
  %48 = phi i32 [ %41, %38 ], [ %57, %55 ]
  %49 = phi i64 [ %45, %38 ], [ 2, %55 ]
  %50 = phi i32 [ %44, %38 ], [ %56, %55 ]
  br label %32, !llvm.loop !19

51:                                               ; preds = %38
  switch i32 %44, label %55 [
    i32 0, label %52
    i32 1, label %58
  ]

52:                                               ; preds = %32, %51
  %53 = load i32, i32* %7, align 4, !tbaa !18
  %54 = add nsw i32 %53, 1
  store i32 %54, i32* %7, align 4, !tbaa !18
  br label %55

55:                                               ; preds = %51, %52
  %56 = phi i32 [ 0, %52 ], [ %44, %51 ]
  %57 = load i32, i32* %7, align 4, !tbaa !18
  br label %47

58:                                               ; preds = %51, %22
  %59 = sext i32 %24 to i64
  %60 = getelementptr inbounds [100 x i32], [100 x i32]* %3, i64 0, i64 %59
  %61 = load i32, i32* %60, align 4, !tbaa !18
  %62 = call nonnull align 8 dereferenceable(8) %"class.std::basic_ostream"* @_ZNSolsEi(%"class.std::basic_ostream"* nonnull align 8 dereferenceable(8) @_ZSt4cout, i32 %61)
  %63 = bitcast %"class.std::basic_ostream"* %62 to i8**
  %64 = load i8*, i8** %63, align 8, !tbaa !5
  %65 = getelementptr i8, i8* %64, i64 -24
  %66 = bitcast i8* %65 to i64*
  %67 = load i64, i64* %66, align 8
  %68 = bitcast %"class.std::basic_ostream"* %62 to i8*
  %69 = add nsw i64 %67, 240
  %70 = getelementptr inbounds i8, i8* %68, i64 %69
  %71 = bitcast i8* %70 to %"class.std::ctype"**
  %72 = load %"class.std::ctype"*, %"class.std::ctype"** %71, align 8, !tbaa !21
  %73 = icmp eq %"class.std::ctype"* %72, null
  br i1 %73, label %74, label %75

74:                                               ; preds = %58
  call void @_ZSt16__throw_bad_castv() #9
  unreachable

75:                                               ; preds = %58
  %76 = getelementptr inbounds %"class.std::ctype", %"class.std::ctype"* %72, i64 0, i32 8
  %77 = load i8, i8* %76, align 8, !tbaa !24
  %78 = icmp eq i8 %77, 0
  br i1 %78, label %82, label %79

79:                                               ; preds = %75
  %80 = getelementptr inbounds %"class.std::ctype", %"class.std::ctype"* %72, i64 0, i32 9, i64 10
  %81 = load i8, i8* %80, align 1, !tbaa !26
  br label %88

82:                                               ; preds = %75
  call void @_ZNKSt5ctypeIcE13_M_widen_initEv(%"class.std::ctype"* nonnull align 8 dereferenceable(570) %72)
  %83 = bitcast %"class.std::ctype"* %72 to i8 (%"class.std::ctype"*, i8)***
  %84 = load i8 (%"class.std::ctype"*, i8)**, i8 (%"class.std::ctype"*, i8)*** %83, align 8, !tbaa !5
  %85 = getelementptr inbounds i8 (%"class.std::ctype"*, i8)*, i8 (%"class.std::ctype"*, i8)** %84, i64 6
  %86 = load i8 (%"class.std::ctype"*, i8)*, i8 (%"class.std::ctype"*, i8)** %85, align 8
  %87 = call signext i8 %86(%"class.std::ctype"* nonnull align 8 dereferenceable(570) %72, i8 signext 10)
  br label %88

88:                                               ; preds = %79, %82
  %89 = phi i8 [ %81, %79 ], [ %87, %82 ]
  %90 = call nonnull align 8 dereferenceable(8) %"class.std::basic_ostream"* @_ZNSo3putEc(%"class.std::basic_ostream"* nonnull align 8 dereferenceable(8) %62, i8 signext %89)
  %91 = call nonnull align 8 dereferenceable(8) %"class.std::basic_ostream"* @_ZNSo5flushEv(%"class.std::basic_ostream"* nonnull align 8 dereferenceable(8) %90)
  call void @llvm.lifetime.end.p0i8(i64 400, i8* nonnull %6) #8
  %92 = call nonnull align 8 dereferenceable(16) %"class.std::basic_istream"* @_ZNSirsERi(%"class.std::basic_istream"* nonnull align 8 dereferenceable(16) @_ZSt3cin, i32* nonnull align 4 dereferenceable(4) %1)
  %93 = call nonnull align 8 dereferenceable(16) %"class.std::basic_istream"* @_ZNSirsERi(%"class.std::basic_istream"* nonnull align 8 dereferenceable(16) %92, i32* nonnull align 4 dereferenceable(4) %2)
  %94 = bitcast %"class.std::basic_istream"* %93 to i8**
  %95 = load i8*, i8** %94, align 8, !tbaa !5
  %96 = getelementptr i8, i8* %95, i64 -24
  %97 = bitcast i8* %96 to i64*
  %98 = load i64, i64* %97, align 8
  %99 = bitcast %"class.std::basic_istream"* %93 to i8*
  %100 = add nsw i64 %98, 32
  %101 = getelementptr inbounds i8, i8* %99, i64 %100
  %102 = bitcast i8* %101 to i32*
  %103 = load i32, i32* %102, align 8, !tbaa !8
  %104 = and i32 %103, 5
  %105 = icmp eq i32 %104, 0
  br i1 %105, label %22, label %106, !llvm.loop !27

106:                                              ; preds = %88, %0
  call void @llvm.lifetime.end.p0i8(i64 4, i8* nonnull %5) #8
  call void @llvm.lifetime.end.p0i8(i64 4, i8* nonnull %4) #8
  ret i32 0
}

; Function Attrs: argmemonly mustprogress nofree nosync nounwind willreturn
declare void @llvm.lifetime.start.p0i8(i64 immarg, i8* nocapture) #4

declare nonnull align 8 dereferenceable(16) %"class.std::basic_istream"* @_ZNSirsERi(%"class.std::basic_istream"* nonnull align 8 dereferenceable(16), i32* nonnull align 4 dereferenceable(4)) local_unnamed_addr #0

; Function Attrs: argmemonly mustprogress nofree nounwind willreturn writeonly
declare void @llvm.memset.p0i8.i64(i8* nocapture writeonly, i8, i64, i1 immarg) #5

; Function Attrs: argmemonly mustprogress nofree nosync nounwind willreturn
declare void @llvm.lifetime.end.p0i8(i64 immarg, i8* nocapture) #4

declare nonnull align 8 dereferenceable(8) %"class.std::basic_ostream"* @_ZNSolsEi(%"class.std::basic_ostream"* nonnull align 8 dereferenceable(8), i32) local_unnamed_addr #0

declare nonnull align 8 dereferenceable(8) %"class.std::basic_ostream"* @_ZNSo3putEc(%"class.std::basic_ostream"* nonnull align 8 dereferenceable(8), i8 signext) local_unnamed_addr #0

declare nonnull align 8 dereferenceable(8) %"class.std::basic_ostream"* @_ZNSo5flushEv(%"class.std::basic_ostream"* nonnull align 8 dereferenceable(8)) local_unnamed_addr #0

; Function Attrs: noreturn
declare void @_ZSt16__throw_bad_castv() local_unnamed_addr #6

declare void @_ZNKSt5ctypeIcE13_M_widen_initEv(%"class.std::ctype"* nonnull align 8 dereferenceable(570)) local_unnamed_addr #0

; Function Attrs: sspstrong uwtable
define internal void @_GLOBAL__sub_I_1410.cpp() #7 section ".text.startup" {
  tail call void @_ZNSt8ios_base4InitC1Ev(%"class.std::ios_base::Init"* nonnull align 1 dereferenceable(1) @_ZStL8__ioinit)
  %1 = tail call i32 @__cxa_atexit(void (i8*)* bitcast (void (%"class.std::ios_base::Init"*)* @_ZNSt8ios_base4InitD1Ev to void (i8*)*), i8* getelementptr inbounds (%"class.std::ios_base::Init", %"class.std::ios_base::Init"* @_ZStL8__ioinit, i64 0, i32 0), i8* nonnull @__dso_handle) #8
  ret void
}


!llvm.module.flags = !{!0, !1, !2, !3}
!llvm.ident = !{!4}

!0 = !{i32 1, !"wchar_size", i32 4}
!1 = !{i32 7, !"PIC Level", i32 2}
!2 = !{i32 7, !"PIE Level", i32 2}
!3 = !{i32 7, !"uwtable", i32 1}
!4 = !{!"clang version 13.0.0"}
!5 = !{!6, !6, i64 0}
!6 = !{!"vtable pointer", !7, i64 0}
!7 = !{!"Simple C++ TBAA"}
!8 = !{!9, !13, i64 32}
!9 = !{!"_ZTSSt8ios_base", !10, i64 8, !10, i64 16, !12, i64 24, !13, i64 28, !13, i64 32, !14, i64 40, !15, i64 48, !11, i64 64, !16, i64 192, !14, i64 200, !17, i64 208}
!10 = !{!"long", !11, i64 0}
!11 = !{!"omnipotent char", !7, i64 0}
!12 = !{!"_ZTSSt13_Ios_Fmtflags", !11, i64 0}
!13 = !{!"_ZTSSt12_Ios_Iostate", !11, i64 0}
!14 = !{!"any pointer", !11, i64 0}
!15 = !{!"_ZTSNSt8ios_base6_WordsE", !14, i64 0, !10, i64 8}
!16 = !{!"int", !11, i64 0}
!17 = !{!"_ZTSSt6locale", !14, i64 0}
!18 = !{!16, !16, i64 0}
!19 = distinct !{!19, !20}
!20 = !{!"llvm.loop.mustprogress"}
!21 = !{!22, !14, i64 240}
!22 = !{!"_ZTSSt9basic_iosIcSt11char_traitsIcEE", !14, i64 216, !11, i64 224, !23, i64 225, !14, i64 232, !14, i64 240, !14, i64 248, !14, i64 256}
!23 = !{!"bool", !11, i64 0}
!24 = !{!25, !11, i64 56}
!25 = !{!"_ZTSSt5ctypeIcE", !14, i64 16, !23, i64 24, !14, i64 32, !14, i64 40, !14, i64 48, !11, i64 56, !11, i64 57, !11, i64 313, !11, i64 569}
!26 = !{!11, !11, i64 0}
!27 = distinct !{!27, !20}
